; Function Attrs: nounwind sspstrong uwtable
define dso_local void @host_to_target_sigset(ptr noundef writeonly captures(none) %d, ptr noundef %s) local_unnamed_addr #1 {
entry:
  br label %host_to_target_signal.exit.i

host_to_target_signal.exit.i:                     ; preds = %for.inc.i, %entry
  %d1.sroa.0.0 = phi i64 [ 0, %entry ], [ %d1.sroa.0.1, %for.inc.i ]
  %indvars.iv.i = phi i64 [ 1, %entry ], [ %indvars.iv.next.i, %for.inc.i ]
  %arrayidx.i.i = getelementptr [65 x i8], ptr @host_to_target_signal_table, i64 0, i64 %indvars.iv.i
  %0 = load i8, ptr %arrayidx.i.i, align 1
  %conv.i.i = zext i8 %0 to i32
  %1 = add nsw i32 %conv.i.i, -65
  %or.cond.i = icmp ult i32 %1, -64
  br i1 %or.cond.i, label %for.inc.i, label %if.end.i

if.end.i:                                         ; preds = %host_to_target_signal.exit.i
  %2 = trunc nuw nsw i64 %indvars.iv.i to i32
  %call3.i = tail call i32 @sigismember(ptr noundef %s, i32 noundef %2) #16
  %tobool.not.i = icmp eq i32 %call3.i, 0
  br i1 %tobool.not.i, label %for.inc.i, label %if.then4.i

if.then4.i:                                       ; preds = %if.end.i
  %dec.i.i = add nuw nsw i32 %conv.i.i, 63
  %rem.i.i = and i32 %dec.i.i, 63
  %sh_prom.i.i = zext nneg i32 %rem.i.i to i64
  %shl.i.i = shl nuw i64 1, %sh_prom.i.i
  %or.i.i = or i64 %shl.i.i, %d1.sroa.0.0
  br label %for.inc.i

for.inc.i:                                        ; preds = %if.then4.i, %if.end.i, %host_to_target_signal.exit.i
  %d1.sroa.0.1 = phi i64 [ %d1.sroa.0.0, %host_to_target_signal.exit.i ], [ %d1.sroa.0.0, %if.end.i ], [ %or.i.i, %if.then4.i ]
  %indvars.iv.next.i = add nuw nsw i64 %indvars.iv.i, 1
  %exitcond.not.i = icmp eq i64 %indvars.iv.next.i, 65
  br i1 %exitcond.not.i, label %host_to_target_sigset_internal.exit, label %host_to_target_signal.exit.i, !llvm.loop !5

host_to_target_sigset_internal.exit:              ; preds = %for.inc.i
  store i64 %d1.sroa.0.1, ptr %d, align 8
  ret void
}